libbox2d.so.2:_Z10b2DistanceP16b2DistanceOutputP14b2SimplexCachePK15b2DistanceInput
libbox2d.so.2:_Z11b2ShapeCastP17b2ShapeCastOutputPK16b2ShapeCastInput
libbox2d.so.2:_Z13b2Log_DefaultPKcP13__va_list_tag
libbox2d.so.2:_Z13b2TestOverlapPK7b2ShapeiS1_iRK11b2TransformS4_
libbox2d.so.2:_Z14b2Free_DefaultPv
libbox2d.so.2:_Z14b2TimeOfImpactP11b2TOIOutputPK10b2TOIInput
libbox2d.so.2:_Z15b2Alloc_Defaulti
libbox2d.so.2:_Z16b2CollideCirclesP10b2ManifoldPK13b2CircleShapeRK11b2TransformS3_S6_
libbox2d.so.2:_Z16b2GetPointStatesP12b2PointStateS0_PK10b2ManifoldS3_
libbox2d.so.2:_Z17b2CollidePolygonsP10b2ManifoldPK14b2PolygonShapeRK11b2TransformS3_S6_
libbox2d.so.2:_Z17b2LinearStiffnessRfS_ffPK6b2BodyS2_
libbox2d.so.2:_Z18b2AngularStiffnessRfS_ffPK6b2BodyS2_
libbox2d.so.2:_Z19b2ClipSegmentToLineP12b2ClipVertexPKS_RK6b2Vec2fi
libbox2d.so.2:_Z22b2CollideEdgeAndCircleP10b2ManifoldPK11b2EdgeShapeRK11b2TransformPK13b2CircleShapeS6_
libbox2d.so.2:_Z23b2CollideEdgeAndPolygonP10b2ManifoldPK11b2EdgeShapeRK11b2TransformPK14b2PolygonShapeS6_
libbox2d.so.2:_Z25b2CollidePolygonAndCircleP10b2ManifoldPK14b2PolygonShapeRK11b2TransformPK13b2CircleShapeS6_
libbox2d.so.2:_ZN11b2EdgeShape11SetOneSidedERK6b2Vec2S2_S2_S2_
libbox2d.so.2:_ZN11b2EdgeShape11SetTwoSidedERK6b2Vec2S2_
libbox2d.so.2:_ZN11b2GearJoint23InitVelocityConstraintsERK12b2SolverData
libbox2d.so.2:_ZN11b2GearJoint24SolvePositionConstraintsERK12b2SolverData
libbox2d.so.2:_ZN11b2GearJoint24SolveVelocityConstraintsERK12b2SolverData
libbox2d.so.2:_ZN11b2GearJoint4DumpEv
libbox2d.so.2:_ZN11b2GearJoint8SetRatioEf
libbox2d.so.2:_ZN11b2GearJointC1EPK14b2GearJointDef
libbox2d.so.2:_ZN11b2GearJointC2EPK14b2GearJointDef
libbox2d.so.2:_ZN11b2WeldJoint23InitVelocityConstraintsERK12b2SolverData
libbox2d.so.2:_ZN11b2WeldJoint24SolvePositionConstraintsERK12b2SolverData
libbox2d.so.2:_ZN11b2WeldJoint24SolveVelocityConstraintsERK12b2SolverData
libbox2d.so.2:_ZN11b2WeldJoint4DumpEv
libbox2d.so.2:_ZN11b2WeldJointC1EPK14b2WeldJointDef
libbox2d.so.2:_ZN11b2WeldJointC2EPK14b2WeldJointDef
libbox2d.so.2:_ZN12b2BroadPhase10BufferMoveEi
libbox2d.so.2:_ZN12b2BroadPhase10TouchProxyEi
libbox2d.so.2:_ZN12b2BroadPhase11CreateProxyERK6b2AABBPv
libbox2d.so.2:_ZN12b2BroadPhase12DestroyProxyEi
libbox2d.so.2:_ZN12b2BroadPhase12UnBufferMoveEi
libbox2d.so.2:_ZN12b2BroadPhase13QueryCallbackEi
libbox2d.so.2:_ZN12b2BroadPhase9MoveProxyEiRK6b2AABBRK6b2Vec2
libbox2d.so.2:_ZN12b2BroadPhaseC1Ev
libbox2d.so.2:_ZN12b2BroadPhaseC2Ev
libbox2d.so.2:_ZN12b2BroadPhaseD1Ev
libbox2d.so.2:_ZN12b2BroadPhaseD2Ev
libbox2d.so.2:_ZN12b2ChainShape10CreateLoopEPK6b2Vec2i
libbox2d.so.2:_ZN12b2ChainShape11CreateChainEPK6b2Vec2iRS1_S3_
libbox2d.so.2:_ZN12b2ChainShape5ClearEv
libbox2d.so.2:_ZN12b2ChainShapeD0Ev
libbox2d.so.2:_ZN12b2ChainShapeD1Ev
libbox2d.so.2:_ZN12b2ChainShapeD2Ev
libbox2d.so.2:_ZN12b2MotorJoint11SetMaxForceEf
libbox2d.so.2:_ZN12b2MotorJoint12SetMaxTorqueEf
libbox2d.so.2:_ZN12b2MotorJoint15SetLinearOffsetERK6b2Vec2
libbox2d.so.2:_ZN12b2MotorJoint16SetAngularOffsetEf
libbox2d.so.2:_ZN12b2MotorJoint19SetCorrectionFactorEf
libbox2d.so.2:_ZN12b2MotorJoint23InitVelocityConstraintsERK12b2SolverData
libbox2d.so.2:_ZN12b2MotorJoint24SolvePositionConstraintsERK12b2SolverData
libbox2d.so.2:_ZN12b2MotorJoint24SolveVelocityConstraintsERK12b2SolverData
libbox2d.so.2:_ZN12b2MotorJoint4DumpEv
libbox2d.so.2:_ZN12b2MotorJointC1EPK15b2MotorJointDef
libbox2d.so.2:_ZN12b2MotorJointC2EPK15b2MotorJointDef
libbox2d.so.2:_ZN12b2MouseJoint11SetMaxForceEf
libbox2d.so.2:_ZN12b2MouseJoint11ShiftOriginERK6b2Vec2
libbox2d.so.2:_ZN12b2MouseJoint23InitVelocityConstraintsERK12b2SolverData
libbox2d.so.2:_ZN12b2MouseJoint24SolvePositionConstraintsERK12b2SolverData
libbox2d.so.2:_ZN12b2MouseJoint24SolveVelocityConstraintsERK12b2SolverData
libbox2d.so.2:_ZN12b2MouseJoint9SetTargetERK6b2Vec2
libbox2d.so.2:_ZN12b2MouseJointC1EPK15b2MouseJointDef
libbox2d.so.2:_ZN12b2MouseJointC2EPK15b2MouseJointDef
libbox2d.so.2:_ZN12b2WheelJoint10SetDampingEf
libbox2d.so.2:_ZN12b2WheelJoint11EnableLimitEb
libbox2d.so.2:_ZN12b2WheelJoint11EnableMotorEb
libbox2d.so.2:_ZN12b2WheelJoint12SetStiffnessEf
libbox2d.so.2:_ZN12b2WheelJoint13SetMotorSpeedEf
libbox2d.so.2:_ZN12b2WheelJoint17SetMaxMotorTorqueEf
libbox2d.so.2:_ZN12b2WheelJoint23InitVelocityConstraintsERK12b2SolverData
libbox2d.so.2:_ZN12b2WheelJoint24SolvePositionConstraintsERK12b2SolverData
libbox2d.so.2:_ZN12b2WheelJoint24SolveVelocityConstraintsERK12b2SolverData
libbox2d.so.2:_ZN12b2WheelJoint4DumpEv
libbox2d.so.2:_ZN12b2WheelJoint9SetLimitsEff
libbox2d.so.2:_ZN12b2WheelJointC1EPK15b2WheelJointDef
libbox2d.so.2:_ZN12b2WheelJointC2EPK15b2WheelJointDef
libbox2d.so.2:_ZN13b2DynamicTree10InsertLeafEi
libbox2d.so.2:_ZN13b2DynamicTree10RemoveLeafEi
libbox2d.so.2:_ZN13b2DynamicTree11CreateProxyERK6b2AABBPv
libbox2d.so.2:_ZN13b2DynamicTree11ShiftOriginERK6b2Vec2
libbox2d.so.2:_ZN13b2DynamicTree12AllocateNodeEv
libbox2d.so.2:_ZN13b2DynamicTree12DestroyProxyEi
libbox2d.so.2:_ZN13b2DynamicTree15RebuildBottomUpEv
libbox2d.so.2:_ZN13b2DynamicTree7BalanceEi
libbox2d.so.2:_ZN13b2DynamicTree8FreeNodeEi
libbox2d.so.2:_ZN13b2DynamicTree9MoveProxyEiRK6b2AABBRK6b2Vec2
libbox2d.so.2:_ZN13b2DynamicTreeC1Ev
libbox2d.so.2:_ZN13b2DynamicTreeC2Ev
libbox2d.so.2:_ZN13b2DynamicTreeD1Ev
libbox2d.so.2:_ZN13b2DynamicTreeD2Ev
libbox2d.so.2:_ZN13b2PulleyJoint11ShiftOriginERK6b2Vec2
libbox2d.so.2:_ZN13b2PulleyJoint23InitVelocityConstraintsERK12b2SolverData
libbox2d.so.2:_ZN13b2PulleyJoint24SolvePositionConstraintsERK12b2SolverData
libbox2d.so.2:_ZN13b2PulleyJoint24SolveVelocityConstraintsERK12b2SolverData
libbox2d.so.2:_ZN13b2PulleyJoint4DumpEv
libbox2d.so.2:_ZN13b2PulleyJointC1EPK16b2PulleyJointDef
libbox2d.so.2:_ZN13b2PulleyJointC2EPK16b2PulleyJointDef
libbox2d.so.2:_ZN14b2PolygonShape3SetEPK6b2Vec2i
libbox2d.so.2:_ZN14b2PolygonShape8SetAsBoxEff
libbox2d.so.2:_ZN14b2PolygonShape8SetAsBoxEffRK6b2Vec2f
libbox2d.so.2:_ZN14b2WeldJointDef10InitializeEP6b2BodyS1_RK6b2Vec2
libbox2d.so.2:_ZN15b2ContactFilter13ShouldCollideEP9b2FixtureS1_
libbox2d.so.2:_ZN15b2DistanceJoint12SetMaxLengthEf
libbox2d.so.2:_ZN15b2DistanceJoint12SetMinLengthEf
libbox2d.so.2:_ZN15b2DistanceJoint23InitVelocityConstraintsERK12b2SolverData
libbox2d.so.2:_ZN15b2DistanceJoint24SolvePositionConstraintsERK12b2SolverData
libbox2d.so.2:_ZN15b2DistanceJoint24SolveVelocityConstraintsERK12b2SolverData
libbox2d.so.2:_ZN15b2DistanceJoint4DumpEv
libbox2d.so.2:_ZN15b2DistanceJoint9SetLengthEf
libbox2d.so.2:_ZN15b2DistanceJointC1EPK18b2DistanceJointDef
libbox2d.so.2:_ZN15b2DistanceJointC2EPK18b2DistanceJointDef
libbox2d.so.2:_ZN15b2DistanceProxy3SetEPK6b2Vec2if
libbox2d.so.2:_ZN15b2DistanceProxy3SetEPK7b2Shapei
libbox2d.so.2:_ZN15b2FrictionJoint11SetMaxForceEf
libbox2d.so.2:_ZN15b2FrictionJoint12SetMaxTorqueEf
libbox2d.so.2:_ZN15b2FrictionJoint23InitVelocityConstraintsERK12b2SolverData
libbox2d.so.2:_ZN15b2FrictionJoint24SolvePositionConstraintsERK12b2SolverData
libbox2d.so.2:_ZN15b2FrictionJoint24SolveVelocityConstraintsERK12b2SolverData
libbox2d.so.2:_ZN15b2FrictionJoint4DumpEv
libbox2d.so.2:_ZN15b2FrictionJointC1EPK18b2FrictionJointDef
libbox2d.so.2:_ZN15b2FrictionJointC2EPK18b2FrictionJointDef
libbox2d.so.2:_ZN15b2MotorJointDef10InitializeEP6b2BodyS1_
libbox2d.so.2:_ZN15b2RevoluteJoint11EnableLimitEb
libbox2d.so.2:_ZN15b2RevoluteJoint11EnableMotorEb
libbox2d.so.2:_ZN15b2RevoluteJoint13SetMotorSpeedEf
libbox2d.so.2:_ZN15b2RevoluteJoint17SetMaxMotorTorqueEf
libbox2d.so.2:_ZN15b2RevoluteJoint23InitVelocityConstraintsERK12b2SolverData
libbox2d.so.2:_ZN15b2RevoluteJoint24SolvePositionConstraintsERK12b2SolverData
libbox2d.so.2:_ZN15b2RevoluteJoint24SolveVelocityConstraintsERK12b2SolverData
libbox2d.so.2:_ZN15b2RevoluteJoint4DumpEv
libbox2d.so.2:_ZN15b2RevoluteJoint9SetLimitsEff
libbox2d.so.2:_ZN15b2RevoluteJointC1EPK18b2RevoluteJointDef
libbox2d.so.2:_ZN15b2RevoluteJointC2EPK18b2RevoluteJointDef
libbox2d.so.2:_ZN15b2WheelJointDef10InitializeEP6b2BodyS1_RK6b2Vec2S4_
libbox2d.so.2:_ZN15b2WorldManifold10InitializeEPK10b2ManifoldRK11b2TransformfS5_f
libbox2d.so.2:_ZN16b2BlockAllocator4FreeEPvi
libbox2d.so.2:_ZN16b2BlockAllocator5ClearEv
libbox2d.so.2:_ZN16b2BlockAllocator8AllocateEi
libbox2d.so.2:_ZN16b2BlockAllocatorC1Ev
libbox2d.so.2:_ZN16b2BlockAllocatorC2Ev
libbox2d.so.2:_ZN16b2BlockAllocatorD1Ev
libbox2d.so.2:_ZN16b2BlockAllocatorD2Ev
libbox2d.so.2:_ZN16b2ContactManager15FindNewContactsEv
libbox2d.so.2:_ZN16b2ContactManager7AddPairEPvS0_
libbox2d.so.2:_ZN16b2ContactManager7CollideEv
libbox2d.so.2:_ZN16b2ContactManager7DestroyEP9b2Contact
libbox2d.so.2:_ZN16b2ContactManagerC1Ev
libbox2d.so.2:_ZN16b2ContactManagerC2Ev
libbox2d.so.2:_ZN16b2PrismaticJoint11EnableLimitEb
libbox2d.so.2:_ZN16b2PrismaticJoint11EnableMotorEb
libbox2d.so.2:_ZN16b2PrismaticJoint13SetMotorSpeedEf
libbox2d.so.2:_ZN16b2PrismaticJoint16SetMaxMotorForceEf
libbox2d.so.2:_ZN16b2PrismaticJoint23InitVelocityConstraintsERK12b2SolverData
libbox2d.so.2:_ZN16b2PrismaticJoint24SolvePositionConstraintsERK12b2SolverData
libbox2d.so.2:_ZN16b2PrismaticJoint24SolveVelocityConstraintsERK12b2SolverData
libbox2d.so.2:_ZN16b2PrismaticJoint4DumpEv
libbox2d.so.2:_ZN16b2PrismaticJoint9SetLimitsEff
libbox2d.so.2:_ZN16b2PrismaticJointC1EPK19b2PrismaticJointDef
libbox2d.so.2:_ZN16b2PrismaticJointC2EPK19b2PrismaticJointDef
libbox2d.so.2:_ZN16b2PulleyJointDef10InitializeEP6b2BodyS1_RK6b2Vec2S4_S4_S4_f
libbox2d.so.2:_ZN16b2StackAllocator4FreeEPv
libbox2d.so.2:_ZN16b2StackAllocator8AllocateEi
libbox2d.so.2:_ZN16b2StackAllocatorC1Ev
libbox2d.so.2:_ZN16b2StackAllocatorC2Ev
libbox2d.so.2:_ZN16b2StackAllocatorD1Ev
libbox2d.so.2:_ZN16b2StackAllocatorD2Ev
libbox2d.so.2:_ZN18b2DistanceJointDef10InitializeEP6b2BodyS1_RK6b2Vec2S4_
libbox2d.so.2:_ZN18b2FrictionJointDef10InitializeEP6b2BodyS1_RK6b2Vec2
libbox2d.so.2:_ZN18b2RevoluteJointDef10InitializeEP6b2BodyS1_RK6b2Vec2
libbox2d.so.2:_ZN19b2PrismaticJointDef10InitializeEP6b2BodyS1_RK6b2Vec2S4_
libbox2d.so.2:_ZN6b2Body10SetEnabledEb
libbox2d.so.2:_ZN6b2Body11SetMassDataEPK10b2MassData
libbox2d.so.2:_ZN6b2Body12SetTransformERK6b2Vec2f
libbox2d.so.2:_ZN6b2Body13CreateFixtureEPK12b2FixtureDef
libbox2d.so.2:_ZN6b2Body13CreateFixtureEPK7b2Shapef
libbox2d.so.2:_ZN6b2Body13ResetMassDataEv
libbox2d.so.2:_ZN6b2Body14DestroyFixtureEP9b2Fixture
libbox2d.so.2:_ZN6b2Body16SetFixedRotationEb
libbox2d.so.2:_ZN6b2Body19SynchronizeFixturesEv
libbox2d.so.2:_ZN6b2Body4DumpEv
libbox2d.so.2:_ZN6b2Body7SetTypeE10b2BodyType
libbox2d.so.2:_ZN6b2BodyC1EPK9b2BodyDefP7b2World
libbox2d.so.2:_ZN6b2BodyC2EPK9b2BodyDefP7b2World
libbox2d.so.2:_ZN6b2BodyD1Ev
libbox2d.so.2:_ZN6b2BodyD2Ev
libbox2d.so.2:_ZN6b2Draw10ClearFlagsEj
libbox2d.so.2:_ZN6b2Draw11AppendFlagsEj
libbox2d.so.2:_ZN6b2Draw8SetFlagsEj
libbox2d.so.2:_ZN6b2DrawC1Ev
libbox2d.so.2:_ZN6b2DrawC2Ev
libbox2d.so.2:_ZN6b2Rope15ApplyBendForcesEf
libbox2d.so.2:_ZN6b2Rope16SolveStretch_PBDEv
libbox2d.so.2:_ZN6b2Rope17SolveStretch_XPBDEf
libbox2d.so.2:_ZN6b2Rope19SolveBend_PBD_AngleEv
libbox2d.so.2:_ZN6b2Rope20SolveBend_PBD_HeightEv
libbox2d.so.2:_ZN6b2Rope20SolveBend_XPBD_AngleEf
libbox2d.so.2:_ZN6b2Rope22SolveBend_PBD_DistanceEv
libbox2d.so.2:_ZN6b2Rope22SolveBend_PBD_TriangleEv
libbox2d.so.2:_ZN6b2Rope4StepEfiRK6b2Vec2
libbox2d.so.2:_ZN6b2Rope5ResetERK6b2Vec2
libbox2d.so.2:_ZN6b2Rope6CreateERK9b2RopeDef
libbox2d.so.2:_ZN6b2Rope9SetTuningERK12b2RopeTuning
libbox2d.so.2:_ZN6b2RopeC1Ev
libbox2d.so.2:_ZN6b2RopeC2Ev
libbox2d.so.2:_ZN6b2RopeD1Ev
libbox2d.so.2:_ZN6b2RopeD2Ev
libbox2d.so.2:_ZN7b2Joint6CreateEPK10b2JointDefP16b2BlockAllocator
libbox2d.so.2:_ZN7b2Joint7DestroyEPS_P16b2BlockAllocator
libbox2d.so.2:_ZN7b2JointC1EPK10b2JointDef
libbox2d.so.2:_ZN7b2JointC2EPK10b2JointDef
libbox2d.so.2:_ZN7b2Timer5ResetEv
libbox2d.so.2:_ZN7b2TimerC1Ev
libbox2d.so.2:_ZN7b2TimerC2Ev
libbox2d.so.2:_ZN7b2World10CreateBodyEPK9b2BodyDef
libbox2d.so.2:_ZN7b2World11ClearForcesEv
libbox2d.so.2:_ZN7b2World11CreateJointEPK10b2JointDef
libbox2d.so.2:_ZN7b2World11DestroyBodyEP6b2Body
libbox2d.so.2:_ZN7b2World11ShiftOriginERK6b2Vec2
libbox2d.so.2:_ZN7b2World12DestroyJointEP7b2Joint
libbox2d.so.2:_ZN7b2World12SetDebugDrawEP6b2Draw
libbox2d.so.2:_ZN7b2World16SetAllowSleepingEb
libbox2d.so.2:_ZN7b2World16SetContactFilterEP15b2ContactFilter
libbox2d.so.2:_ZN7b2World18SetContactListenerEP17b2ContactListener
libbox2d.so.2:_ZN7b2World22SetDestructionListenerEP21b2DestructionListener
libbox2d.so.2:_ZN7b2World4DumpEv
libbox2d.so.2:_ZN7b2World4StepEfii
libbox2d.so.2:_ZN7b2World5SolveERK10b2TimeStep
libbox2d.so.2:_ZN7b2World8SolveTOIERK10b2TimeStep
libbox2d.so.2:_ZN7b2World9DebugDrawEv
libbox2d.so.2:_ZN7b2World9DrawShapeEP9b2FixtureRK11b2TransformRK7b2Color
libbox2d.so.2:_ZN7b2WorldC1ERK6b2Vec2
libbox2d.so.2:_ZN7b2WorldC2ERK6b2Vec2
libbox2d.so.2:_ZN7b2WorldD1Ev
libbox2d.so.2:_ZN7b2WorldD2Ev
libbox2d.so.2:_ZN9b2Contact19InitializeRegistersEv
libbox2d.so.2:_ZN9b2Contact6CreateEP9b2FixtureiS1_iP16b2BlockAllocator
libbox2d.so.2:_ZN9b2Contact6UpdateEP17b2ContactListener
libbox2d.so.2:_ZN9b2Contact7AddTypeEPFPS_P9b2FixtureiS2_iP16b2BlockAllocatorEPFvS0_S4_EN7b2Shape4TypeESA_
libbox2d.so.2:_ZN9b2Contact7DestroyEPS_P16b2BlockAllocator
libbox2d.so.2:_ZN9b2ContactC1EP9b2FixtureiS1_i
libbox2d.so.2:_ZN9b2ContactC2EP9b2FixtureiS1_i
libbox2d.so.2:_ZN9b2Fixture11SynchronizeEP12b2BroadPhaseRK11b2TransformS4_
libbox2d.so.2:_ZN9b2Fixture13CreateProxiesEP12b2BroadPhaseRK11b2Transform
libbox2d.so.2:_ZN9b2Fixture13SetFilterDataERK8b2Filter
libbox2d.so.2:_ZN9b2Fixture14DestroyProxiesEP12b2BroadPhase
libbox2d.so.2:_ZN9b2Fixture4DumpEi
libbox2d.so.2:_ZN9b2Fixture6CreateEP16b2BlockAllocatorP6b2BodyPK12b2FixtureDef
libbox2d.so.2:_ZN9b2Fixture7DestroyEP16b2BlockAllocator
libbox2d.so.2:_ZN9b2Fixture8RefilterEv
libbox2d.so.2:_ZN9b2Fixture9SetSensorEb
libbox2d.so.2:_ZN9b2FixtureC1Ev
libbox2d.so.2:_ZN9b2FixtureC2Ev
libbox2d.so.2:_ZNK11b2EdgeShape11ComputeAABBEP6b2AABBRK11b2Transformi
libbox2d.so.2:_ZNK11b2EdgeShape11ComputeMassEP10b2MassDataf
libbox2d.so.2:_ZNK11b2EdgeShape13GetChildCountEv
libbox2d.so.2:_ZNK11b2EdgeShape5CloneEP16b2BlockAllocator
libbox2d.so.2:_ZNK11b2EdgeShape7RayCastEP15b2RayCastOutputRK14b2RayCastInputRK11b2Transformi
libbox2d.so.2:_ZNK11b2EdgeShape9TestPointERK11b2TransformRK6b2Vec2
libbox2d.so.2:_ZNK11b2GearJoint10GetAnchorAEv
libbox2d.so.2:_ZNK11b2GearJoint10GetAnchorBEv
libbox2d.so.2:_ZNK11b2GearJoint16GetReactionForceEf
libbox2d.so.2:_ZNK11b2GearJoint17GetReactionTorqueEf
libbox2d.so.2:_ZNK11b2GearJoint8GetRatioEv
libbox2d.so.2:_ZNK11b2WeldJoint10GetAnchorAEv
libbox2d.so.2:_ZNK11b2WeldJoint10GetAnchorBEv
libbox2d.so.2:_ZNK11b2WeldJoint16GetReactionForceEf
libbox2d.so.2:_ZNK11b2WeldJoint17GetReactionTorqueEf
libbox2d.so.2:_ZNK12b2ChainShape11ComputeAABBEP6b2AABBRK11b2Transformi
libbox2d.so.2:_ZNK12b2ChainShape11ComputeMassEP10b2MassDataf
libbox2d.so.2:_ZNK12b2ChainShape12GetChildEdgeEP11b2EdgeShapei
libbox2d.so.2:_ZNK12b2ChainShape13GetChildCountEv
libbox2d.so.2:_ZNK12b2ChainShape5CloneEP16b2BlockAllocator
libbox2d.so.2:_ZNK12b2ChainShape7RayCastEP15b2RayCastOutputRK14b2RayCastInputRK11b2Transformi
libbox2d.so.2:_ZNK12b2ChainShape9TestPointERK11b2TransformRK6b2Vec2
libbox2d.so.2:_ZNK12b2MotorJoint10GetAnchorAEv
libbox2d.so.2:_ZNK12b2MotorJoint10GetAnchorBEv
libbox2d.so.2:_ZNK12b2MotorJoint11GetMaxForceEv
libbox2d.so.2:_ZNK12b2MotorJoint12GetMaxTorqueEv
libbox2d.so.2:_ZNK12b2MotorJoint15GetLinearOffsetEv
libbox2d.so.2:_ZNK12b2MotorJoint16GetAngularOffsetEv
libbox2d.so.2:_ZNK12b2MotorJoint16GetReactionForceEf
libbox2d.so.2:_ZNK12b2MotorJoint17GetReactionTorqueEf
libbox2d.so.2:_ZNK12b2MotorJoint19GetCorrectionFactorEv
libbox2d.so.2:_ZNK12b2MouseJoint10GetAnchorAEv
libbox2d.so.2:_ZNK12b2MouseJoint10GetAnchorBEv
libbox2d.so.2:_ZNK12b2MouseJoint11GetMaxForceEv
libbox2d.so.2:_ZNK12b2MouseJoint16GetReactionForceEf
libbox2d.so.2:_ZNK12b2MouseJoint17GetReactionTorqueEf
libbox2d.so.2:_ZNK12b2MouseJoint9GetTargetEv
libbox2d.so.2:_ZNK12b2WheelJoint10GetAnchorAEv
libbox2d.so.2:_ZNK12b2WheelJoint10GetAnchorBEv
libbox2d.so.2:_ZNK12b2WheelJoint10GetDampingEv
libbox2d.so.2:_ZNK12b2WheelJoint12GetStiffnessEv
libbox2d.so.2:_ZNK12b2WheelJoint13GetJointAngleEv
libbox2d.so.2:_ZNK12b2WheelJoint13GetLowerLimitEv
libbox2d.so.2:_ZNK12b2WheelJoint13GetUpperLimitEv
libbox2d.so.2:_ZNK12b2WheelJoint14GetMotorTorqueEf
libbox2d.so.2:_ZNK12b2WheelJoint14IsLimitEnabledEv
libbox2d.so.2:_ZNK12b2WheelJoint14IsMotorEnabledEv
libbox2d.so.2:_ZNK12b2WheelJoint16GetReactionForceEf
libbox2d.so.2:_ZNK12b2WheelJoint17GetReactionTorqueEf
libbox2d.so.2:_ZNK12b2WheelJoint19GetJointLinearSpeedEv
libbox2d.so.2:_ZNK12b2WheelJoint19GetJointTranslationEv
libbox2d.so.2:_ZNK12b2WheelJoint20GetJointAngularSpeedEv
libbox2d.so.2:_ZNK12b2WheelJoint4DrawEP6b2Draw
libbox2d.so.2:_ZNK13b2CircleShape11ComputeAABBEP6b2AABBRK11b2Transformi
libbox2d.so.2:_ZNK13b2CircleShape11ComputeMassEP10b2MassDataf
libbox2d.so.2:_ZNK13b2CircleShape13GetChildCountEv
libbox2d.so.2:_ZNK13b2CircleShape5CloneEP16b2BlockAllocator
libbox2d.so.2:_ZNK13b2CircleShape7RayCastEP15b2RayCastOutputRK14b2RayCastInputRK11b2Transformi
libbox2d.so.2:_ZNK13b2CircleShape9TestPointERK11b2TransformRK6b2Vec2
libbox2d.so.2:_ZNK13b2DynamicTree12GetAreaRatioEv
libbox2d.so.2:_ZNK13b2DynamicTree13ComputeHeightEi
libbox2d.so.2:_ZNK13b2DynamicTree13ComputeHeightEv
libbox2d.so.2:_ZNK13b2DynamicTree13GetMaxBalanceEv
libbox2d.so.2:_ZNK13b2DynamicTree15ValidateMetricsEi
libbox2d.so.2:_ZNK13b2DynamicTree17ValidateStructureEi
libbox2d.so.2:_ZNK13b2DynamicTree8ValidateEv
libbox2d.so.2:_ZNK13b2DynamicTree9GetHeightEv
libbox2d.so.2:_ZNK13b2PulleyJoint10GetAnchorAEv
libbox2d.so.2:_ZNK13b2PulleyJoint10GetAnchorBEv
libbox2d.so.2:_ZNK13b2PulleyJoint10GetLengthAEv
libbox2d.so.2:_ZNK13b2PulleyJoint10GetLengthBEv
libbox2d.so.2:_ZNK13b2PulleyJoint16GetGroundAnchorAEv
libbox2d.so.2:_ZNK13b2PulleyJoint16GetGroundAnchorBEv
libbox2d.so.2:_ZNK13b2PulleyJoint16GetReactionForceEf
libbox2d.so.2:_ZNK13b2PulleyJoint17GetCurrentLengthAEv
libbox2d.so.2:_ZNK13b2PulleyJoint17GetCurrentLengthBEv
libbox2d.so.2:_ZNK13b2PulleyJoint17GetReactionTorqueEf
libbox2d.so.2:_ZNK13b2PulleyJoint8GetRatioEv
libbox2d.so.2:_ZNK14b2PolygonShape11ComputeAABBEP6b2AABBRK11b2Transformi
libbox2d.so.2:_ZNK14b2PolygonShape11ComputeMassEP10b2MassDataf
libbox2d.so.2:_ZNK14b2PolygonShape13GetChildCountEv
libbox2d.so.2:_ZNK14b2PolygonShape5CloneEP16b2BlockAllocator
libbox2d.so.2:_ZNK14b2PolygonShape7RayCastEP15b2RayCastOutputRK14b2RayCastInputRK11b2Transformi
libbox2d.so.2:_ZNK14b2PolygonShape8ValidateEv
libbox2d.so.2:_ZNK14b2PolygonShape9TestPointERK11b2TransformRK6b2Vec2
libbox2d.so.2:_ZNK15b2DistanceJoint10GetAnchorAEv
libbox2d.so.2:_ZNK15b2DistanceJoint10GetAnchorBEv
libbox2d.so.2:_ZNK15b2DistanceJoint16GetCurrentLengthEv
libbox2d.so.2:_ZNK15b2DistanceJoint16GetReactionForceEf
libbox2d.so.2:_ZNK15b2DistanceJoint17GetReactionTorqueEf
libbox2d.so.2:_ZNK15b2DistanceJoint4DrawEP6b2Draw
libbox2d.so.2:_ZNK15b2FrictionJoint10GetAnchorAEv
libbox2d.so.2:_ZNK15b2FrictionJoint10GetAnchorBEv
libbox2d.so.2:_ZNK15b2FrictionJoint11GetMaxForceEv
libbox2d.so.2:_ZNK15b2FrictionJoint12GetMaxTorqueEv
libbox2d.so.2:_ZNK15b2FrictionJoint16GetReactionForceEf
libbox2d.so.2:_ZNK15b2FrictionJoint17GetReactionTorqueEf
libbox2d.so.2:_ZNK15b2RevoluteJoint10GetAnchorAEv
libbox2d.so.2:_ZNK15b2RevoluteJoint10GetAnchorBEv
libbox2d.so.2:_ZNK15b2RevoluteJoint13GetJointAngleEv
libbox2d.so.2:_ZNK15b2RevoluteJoint13GetJointSpeedEv
libbox2d.so.2:_ZNK15b2RevoluteJoint13GetLowerLimitEv
libbox2d.so.2:_ZNK15b2RevoluteJoint13GetUpperLimitEv
libbox2d.so.2:_ZNK15b2RevoluteJoint14GetMotorTorqueEf
libbox2d.so.2:_ZNK15b2RevoluteJoint14IsLimitEnabledEv
libbox2d.so.2:_ZNK15b2RevoluteJoint14IsMotorEnabledEv
libbox2d.so.2:_ZNK15b2RevoluteJoint16GetReactionForceEf
libbox2d.so.2:_ZNK15b2RevoluteJoint17GetReactionTorqueEf
libbox2d.so.2:_ZNK15b2RevoluteJoint4DrawEP6b2Draw
libbox2d.so.2:_ZNK16b2PrismaticJoint10GetAnchorAEv
libbox2d.so.2:_ZNK16b2PrismaticJoint10GetAnchorBEv
libbox2d.so.2:_ZNK16b2PrismaticJoint13GetJointSpeedEv
libbox2d.so.2:_ZNK16b2PrismaticJoint13GetLowerLimitEv
libbox2d.so.2:_ZNK16b2PrismaticJoint13GetMotorForceEf
libbox2d.so.2:_ZNK16b2PrismaticJoint13GetUpperLimitEv
libbox2d.so.2:_ZNK16b2PrismaticJoint14IsLimitEnabledEv
libbox2d.so.2:_ZNK16b2PrismaticJoint14IsMotorEnabledEv
libbox2d.so.2:_ZNK16b2PrismaticJoint16GetReactionForceEf
libbox2d.so.2:_ZNK16b2PrismaticJoint17GetReactionTorqueEf
libbox2d.so.2:_ZNK16b2PrismaticJoint19GetJointTranslationEv
libbox2d.so.2:_ZNK16b2PrismaticJoint4DrawEP6b2Draw
libbox2d.so.2:_ZNK16b2StackAllocator16GetMaxAllocationEv
libbox2d.so.2:_ZNK6b2AABB7RayCastEP15b2RayCastOutputRK14b2RayCastInput
libbox2d.so.2:_ZNK6b2Body13ShouldCollideEPKS_
libbox2d.so.2:_ZNK6b2Draw8GetFlagsEv
libbox2d.so.2:_ZNK6b2Rope4DrawEP6b2Draw
libbox2d.so.2:_ZNK7b2Joint4DrawEP6b2Draw
libbox2d.so.2:_ZNK7b2Joint9IsEnabledEv
libbox2d.so.2:_ZNK7b2Mat3312GetInverse22EPS_
libbox2d.so.2:_ZNK7b2Mat3315GetSymInverse33EPS_
libbox2d.so.2:_ZNK7b2Mat337Solve22ERK6b2Vec2
libbox2d.so.2:_ZNK7b2Mat337Solve33ERK6b2Vec3
libbox2d.so.2:_ZNK7b2Timer15GetMillisecondsEv
libbox2d.so.2:_ZNK7b2World13GetProxyCountEv
libbox2d.so.2:_ZNK7b2World13GetTreeHeightEv
libbox2d.so.2:_ZNK7b2World14GetTreeBalanceEv
libbox2d.so.2:_ZNK7b2World14GetTreeQualityEv
libbox2d.so.2:_ZNK7b2World7RayCastEP17b2RayCastCallbackRK6b2Vec2S4_
libbox2d.so.2:_ZNK7b2World9QueryAABBEP15b2QueryCallbackRK6b2AABB
